target datalayout = "e-m:e-p270:32:32-p271:32:32-p272:64:64-i64:64-i128:128-f80:128-n8:16:32:64-S128"
target triple = "x86_64-pc-linux-gnu"

; Function Attrs: nounwind uwtable
define hidden void @VP8LAddGreenToBlueAndRed_C(ptr noundef %0, i32 noundef %1, ptr noundef %2) #0 {
  %4 = alloca ptr, align 8
  %5 = alloca i32, align 4
  %6 = alloca ptr, align 8
  %7 = alloca i32, align 4
  %8 = alloca i32, align 4
  %9 = alloca i32, align 4
  %10 = alloca i32, align 4
  store ptr %0, ptr %4, align 8, !tbaa !3
  store i32 %1, ptr %5, align 4, !tbaa !8
  store ptr %2, ptr %6, align 8, !tbaa !3
  call void @llvm.lifetime.start.p0(i64 4, ptr %7) #8
  store i32 0, ptr %7, align 4, !tbaa !8
  br label %11

11:                                               ; preds = %42, %3
  %12 = load i32, ptr %7, align 4, !tbaa !8
  %13 = load i32, ptr %5, align 4, !tbaa !8
  %14 = icmp slt i32 %12, %13
  br i1 %14, label %15, label %45

15:                                               ; preds = %11
  call void @llvm.lifetime.start.p0(i64 4, ptr %8) #8
  %16 = load ptr, ptr %4, align 8, !tbaa !3
  %17 = load i32, ptr %7, align 4, !tbaa !8
  %18 = sext i32 %17 to i64
  %19 = getelementptr inbounds i32, ptr %16, i64 %18
  %20 = load i32, ptr %19, align 4, !tbaa !8
  store i32 %20, ptr %8, align 4, !tbaa !8
  call void @llvm.lifetime.start.p0(i64 4, ptr %9) #8
  %21 = load i32, ptr %8, align 4, !tbaa !8
  %22 = lshr i32 %21, 8
  %23 = and i32 %22, 255
  store i32 %23, ptr %9, align 4, !tbaa !8
  call void @llvm.lifetime.start.p0(i64 4, ptr %10) #8
  %24 = load i32, ptr %8, align 4, !tbaa !8
  %25 = and i32 %24, 16711935
  store i32 %25, ptr %10, align 4, !tbaa !8
  %26 = load i32, ptr %9, align 4, !tbaa !8
  %27 = shl i32 %26, 16
  %28 = load i32, ptr %9, align 4, !tbaa !8
  %29 = or i32 %27, %28
  %30 = load i32, ptr %10, align 4, !tbaa !8
  %31 = add i32 %30, %29
  store i32 %31, ptr %10, align 4, !tbaa !8
  %32 = load i32, ptr %10, align 4, !tbaa !8
  %33 = and i32 %32, 16711935
  store i32 %33, ptr %10, align 4, !tbaa !8
  %34 = load i32, ptr %8, align 4, !tbaa !8
  %35 = and i32 %34, -16711936
  %36 = load i32, ptr %10, align 4, !tbaa !8
  %37 = or i32 %35, %36
  %38 = load ptr, ptr %6, align 8, !tbaa !3
  %39 = load i32, ptr %7, align 4, !tbaa !8
  %40 = sext i32 %39 to i64
  %41 = getelementptr inbounds i32, ptr %38, i64 %40
  store i32 %37, ptr %41, align 4, !tbaa !8
  call void @llvm.lifetime.end.p0(i64 4, ptr %10) #8
  call void @llvm.lifetime.end.p0(i64 4, ptr %9) #8
  call void @llvm.lifetime.end.p0(i64 4, ptr %8) #8
  br label %42

42:                                               ; preds = %15
  %43 = load i32, ptr %7, align 4, !tbaa !8
  %44 = add nsw i32 %43, 1
  store i32 %44, ptr %7, align 4, !tbaa !8
  br label %11, !llvm.loop !10

45:                                               ; preds = %11
  call void @llvm.lifetime.end.p0(i64 4, ptr %7) #8
  ret void
}