; Function Attrs: nofree norecurse nosync nounwind memory(argmem: readwrite) uwtable
define hidden void @VP8LAddGreenToBlueAndRed_C(ptr noundef readonly captures(none) %0, i32 noundef %1, ptr noundef writeonly captures(none) %2) #2 {
  %4 = icmp sgt i32 %1, 0
  br i1 %4, label %.lr.ph.preheader, label %._crit_edge

.lr.ph.preheader:                                 ; preds = %3
  %wide.trip.count = zext nneg i32 %1 to i64
  br label %.lr.ph

.lr.ph:                                           ; preds = %.lr.ph.preheader, %.lr.ph
  %indvars.iv = phi i64 [ 0, %.lr.ph.preheader ], [ %indvars.iv.next, %.lr.ph ]
  %5 = getelementptr inbounds nuw i32, ptr %0, i64 %indvars.iv
  %6 = load i32, ptr %5, align 4, !tbaa !3
  %7 = lshr i32 %6, 8
  %8 = and i32 %7, 255
  %9 = and i32 %6, 16711935
  %10 = shl nuw nsw i32 %8, 16
  %11 = add nuw nsw i32 %8, %9
  %12 = add nuw nsw i32 %11, %10
  %13 = and i32 %12, 16711935
  %14 = and i32 %6, -16711936
  %15 = or disjoint i32 %13, %14
  %16 = getelementptr inbounds nuw i32, ptr %2, i64 %indvars.iv
  store i32 %15, ptr %16, align 4, !tbaa !3
  %indvars.iv.next = add nuw nsw i64 %indvars.iv, 1
  %exitcond.not = icmp eq i64 %indvars.iv.next, %wide.trip.count
  br i1 %exitcond.not, label %._crit_edge, label %.lr.ph, !llvm.loop !7

._crit_edge:                                      ; preds = %.lr.ph, %3
  ret void
}